target datalayout = "e-m:e-p270:32:32-p271:32:32-p272:64:64-i64:64-i128:128-f80:128-n8:16:32:64-S128"
target triple = "x86_64-pc-linux-gnu"

%struct.expert_field = type { i32, i32 }
%struct._packet_info = type { ptr, ptr, i32, i32, %struct.nstime_t, %struct.nstime_t, %struct.nstime_t, i8, ptr, ptr, ptr, ptr, %struct._address, %struct._address, %struct._address, %struct._address, %struct._address, %struct._address, i32, ptr, i8, [3 x i8], %struct.anon, i32, i32, i32, i32, ptr, i8, ptr, ptr, i16, i16, i32, i32, i16, i32, i32, ptr, ptr, ptr, i8, i8, i16, i16, i16, i32, i16, i16, ptr, ptr, ptr, ptr, ptr, i32, i32 }
%struct.nstime_t = type { i64, i32 }
%struct._address = type { i32, i32, ptr, ptr }
%struct.anon = type { i8, [3 x i8] }
%struct._xmpp_element_t = type { ptr, ptr, ptr, ptr, ptr, ptr, i32, i32, i8 }
%struct._GList = type { ptr, ptr, ptr }

@.str.8 = private unnamed_addr constant [3 x i8] c"iq\00", align 1
@hf_xmpp_unknown = external global i32, align 4
@.str.11 = private unnamed_addr constant [3 x i8] c"%s\00", align 1
@ett_unknown = external global [20 x i32], align 16
@.str.12 = private unnamed_addr constant [4 x i8] c"%s \00", align 1
@.str.13 = private unnamed_addr constant [5 x i8] c"(%s)\00", align 1
@.str.14 = private unnamed_addr constant [11 x i8] c" [UNKNOWN]\00", align 1
@ei_xmpp_unknown_element = external global %struct.expert_field, align 4
@.str.15 = private unnamed_addr constant [20 x i8] c"Unknown element: %s\00", align 1

; Function Attrs: null_pointer_is_valid sspstrong uwtable
define internal ptr @xmpp_ep_string_upcase(ptr noundef %0, ptr noundef %1) #0 {
  %3 = alloca ptr, align 8
  %4 = alloca ptr, align 8
  %5 = alloca i32, align 4
  %6 = alloca i32, align 4
  %7 = alloca ptr, align 8
  store ptr %0, ptr %3, align 8
  store ptr %1, ptr %4, align 8
  call void @llvm.lifetime.start.p0(i64 4, ptr %5) #8
  %8 = load ptr, ptr %4, align 8
  %9 = call i64 @strlen(ptr noundef %8) #10
  %10 = trunc i64 %9 to i32
  store i32 %10, ptr %5, align 4
  call void @llvm.lifetime.start.p0(i64 4, ptr %6) #8
  call void @llvm.lifetime.start.p0(i64 8, ptr %7) #8
  %11 = load ptr, ptr %3, align 8
  %12 = load i32, ptr %5, align 4
  %13 = add i32 %12, 1
  %14 = sext i32 %13 to i64
  %15 = call noalias ptr @wmem_alloc0(ptr noundef %11, i64 noundef %14) #9
  store ptr %15, ptr %7, align 8
  store i32 0, ptr %6, align 4
  br label %16

16:                                               ; preds = %55, %2
  %17 = load i32, ptr %6, align 4
  %18 = load i32, ptr %5, align 4
  %19 = icmp slt i32 %17, %18
  br i1 %19, label %20, label %58

20:                                               ; preds = %16
  %21 = load ptr, ptr %4, align 8
  %22 = load i32, ptr %6, align 4
  %23 = sext i32 %22 to i64
  %24 = getelementptr i8, ptr %21, i64 %23
  %25 = load i8, ptr %24, align 1
  %26 = load ptr, ptr %7, align 8
  %27 = load i32, ptr %6, align 4
  %28 = sext i32 %27 to i64
  %29 = getelementptr i8, ptr %26, i64 %28
  store i8 %25, ptr %29, align 1
  %30 = load ptr, ptr %4, align 8
  %31 = load i32, ptr %6, align 4
  %32 = sext i32 %31 to i64
  %33 = getelementptr i8, ptr %30, i64 %32
  %34 = load i8, ptr %33, align 1
  %35 = sext i8 %34 to i32
  %36 = icmp sge i32 %35, 97
  br i1 %36, label %37, label %54

37:                                               ; preds = %20
  %38 = load ptr, ptr %4, align 8
  %39 = load i32, ptr %6, align 4
  %40 = sext i32 %39 to i64
  %41 = getelementptr i8, ptr %38, i64 %40
  %42 = load i8, ptr %41, align 1
  %43 = sext i8 %42 to i32
  %44 = icmp sle i32 %43, 122
  br i1 %44, label %45, label %54

45:                                               ; preds = %37
  %46 = load ptr, ptr %7, align 8
  %47 = load i32, ptr %6, align 4
  %48 = sext i32 %47 to i64
  %49 = getelementptr i8, ptr %46, i64 %48
  %50 = load i8, ptr %49, align 1
  %51 = sext i8 %50 to i32
  %52 = sub i32 %51, 32
  %53 = trunc i32 %52 to i8
  store i8 %53, ptr %49, align 1
  br label %54

54:                                               ; preds = %45, %37, %20
  br label %55

55:                                               ; preds = %54
  %56 = load i32, ptr %6, align 4
  %57 = add i32 %56, 1
  store i32 %57, ptr %6, align 4
  br label %16, !llvm.loop !10

58:                                               ; preds = %16
  %59 = load ptr, ptr %7, align 8
  call void @llvm.lifetime.end.p0(i64 8, ptr %7) #8
  call void @llvm.lifetime.end.p0(i64 4, ptr %6) #8
  call void @llvm.lifetime.end.p0(i64 4, ptr %5) #8
  ret ptr %59
}

; Function Attrs: null_pointer_is_valid sspstrong uwtable
define hidden void @xmpp_unknown(ptr noundef %0, ptr noundef %1, ptr noundef %2, ptr noundef %3) #0 {
  %5 = alloca ptr, align 8
  %6 = alloca ptr, align 8
  %7 = alloca ptr, align 8
  %8 = alloca ptr, align 8
  %9 = alloca ptr, align 8
  %10 = alloca ptr, align 8
  %11 = alloca ptr, align 8
  %12 = alloca ptr, align 8
  store ptr %0, ptr %5, align 8
  store ptr %1, ptr %6, align 8
  store ptr %2, ptr %7, align 8
  store ptr %3, ptr %8, align 8
  call void @llvm.lifetime.start.p0(i64 8, ptr %9) #8
  %13 = load ptr, ptr %8, align 8
  %14 = getelementptr inbounds nuw %struct._xmpp_element_t, ptr %13, i32 0, i32 4
  %15 = load ptr, ptr %14, align 8
  store ptr %15, ptr %9, align 8
  br label %16

16:                                               ; preds = %89, %4
  %17 = load ptr, ptr %9, align 8
  %18 = icmp ne ptr %17, null
  br i1 %18, label %19, label %93

19:                                               ; preds = %16
  call void @llvm.lifetime.start.p0(i64 8, ptr %10) #8
  %20 = load ptr, ptr %9, align 8
  %21 = getelementptr inbounds nuw %struct._GList, ptr %20, i32 0, i32 0
  %22 = load ptr, ptr %21, align 8
  store ptr %22, ptr %10, align 8
  %23 = load ptr, ptr %10, align 8
  %24 = getelementptr inbounds nuw %struct._xmpp_element_t, ptr %23, i32 0, i32 8
  %25 = load i8, ptr %24, align 8, !range !6, !noundef !7
  %26 = trunc i8 %25 to i1
  br i1 %26, label %89, label %27

27:                                               ; preds = %19
  call void @llvm.lifetime.start.p0(i64 8, ptr %11) #8
  call void @llvm.lifetime.start.p0(i64 8, ptr %12) #8
  %28 = load ptr, ptr %5, align 8
  %29 = load i32, ptr @hf_xmpp_unknown, align 4
  %30 = load ptr, ptr %6, align 8
  %31 = load ptr, ptr %10, align 8
  %32 = getelementptr inbounds nuw %struct._xmpp_element_t, ptr %31, i32 0, i32 6
  %33 = load i32, ptr %32, align 8
  %34 = load ptr, ptr %10, align 8
  %35 = getelementptr inbounds nuw %struct._xmpp_element_t, ptr %34, i32 0, i32 7
  %36 = load i32, ptr %35, align 4
  %37 = load ptr, ptr %10, align 8
  %38 = getelementptr inbounds nuw %struct._xmpp_element_t, ptr %37, i32 0, i32 0
  %39 = load ptr, ptr %38, align 8
  %40 = load ptr, ptr %7, align 8
  %41 = getelementptr inbounds nuw %struct._packet_info, ptr %40, i32 0, i32 51
  %42 = load ptr, ptr %41, align 8
  %43 = load ptr, ptr %10, align 8
  %44 = getelementptr inbounds nuw %struct._xmpp_element_t, ptr %43, i32 0, i32 0
  %45 = load ptr, ptr %44, align 8
  %46 = call ptr @xmpp_ep_string_upcase(ptr noundef %42, ptr noundef %45)
  %47 = call ptr (ptr, i32, ptr, i32, i32, ptr, ptr, ...) @proto_tree_add_string_format(ptr noundef %28, i32 noundef %29, ptr noundef %30, i32 noundef %33, i32 noundef %36, ptr noundef %39, ptr noundef @.str.11, ptr noundef %46)
  store ptr %47, ptr %11, align 8
  %48 = load ptr, ptr %11, align 8
  %49 = load i32, ptr @ett_unknown, align 16
  %50 = call ptr @proto_item_add_subtree(ptr noundef %48, i32 noundef %49)
  store ptr %50, ptr %12, align 8
  %51 = load ptr, ptr %8, align 8
  %52 = getelementptr inbounds nuw %struct._xmpp_element_t, ptr %51, i32 0, i32 0
  %53 = load ptr, ptr %52, align 8
  %54 = call i32 @strcmp(ptr noundef %53, ptr noundef @.str.8) #10
  %55 = icmp eq i32 %54, 0
  br i1 %55, label %56, label %67

56:                                               ; preds = %27
  %57 = load ptr, ptr %7, align 8
  %58 = getelementptr inbounds nuw %struct._packet_info, ptr %57, i32 0, i32 1
  %59 = load ptr, ptr %58, align 8
  %60 = load ptr, ptr %7, align 8
  %61 = getelementptr inbounds nuw %struct._packet_info, ptr %60, i32 0, i32 51
  %62 = load ptr, ptr %61, align 8
  %63 = load ptr, ptr %10, align 8
  %64 = getelementptr inbounds nuw %struct._xmpp_element_t, ptr %63, i32 0, i32 0
  %65 = load ptr, ptr %64, align 8
  %66 = call ptr @xmpp_ep_string_upcase(ptr noundef %62, ptr noundef %65)
  call void (ptr, i32, ptr, ...) @col_append_fstr(ptr noundef %59, i32 noundef 25, ptr noundef @.str.12, ptr noundef %66)
  br label %67

67:                                               ; preds = %56, %27
  %68 = load ptr, ptr %10, align 8
  %69 = getelementptr inbounds nuw %struct._xmpp_element_t, ptr %68, i32 0, i32 1
  %70 = load ptr, ptr %69, align 8
  %71 = icmp ne ptr %70, null
  br i1 %71, label %72, label %77

72:                                               ; preds = %67
  %73 = load ptr, ptr %11, align 8
  %74 = load ptr, ptr %10, align 8
  %75 = getelementptr inbounds nuw %struct._xmpp_element_t, ptr %74, i32 0, i32 1
  %76 = load ptr, ptr %75, align 8
  call void (ptr, ptr, ...) @proto_item_append_text(ptr noundef %73, ptr noundef @.str.13, ptr noundef %76)
  br label %77

77:                                               ; preds = %72, %67
  %78 = load ptr, ptr %12, align 8
  %79 = load ptr, ptr %6, align 8
  %80 = load ptr, ptr %7, align 8
  %81 = load ptr, ptr %10, align 8
  call void @xmpp_unknown_items(ptr noundef %78, ptr noundef %79, ptr noundef %80, ptr noundef %81, i32 noundef 1)
  %82 = load ptr, ptr %11, align 8
  call void (ptr, ptr, ...) @proto_item_append_text(ptr noundef %82, ptr noundef @.str.14)
  %83 = load ptr, ptr %7, align 8
  %84 = load ptr, ptr %11, align 8
  %85 = load ptr, ptr %10, align 8
  %86 = getelementptr inbounds nuw %struct._xmpp_element_t, ptr %85, i32 0, i32 0
  %87 = load ptr, ptr %86, align 8
  %88 = call ptr (ptr, ptr, ptr, ptr, ...) @expert_add_info_format(ptr noundef %83, ptr noundef %84, ptr noundef @ei_xmpp_unknown_element, ptr noundef @.str.15, ptr noundef %87)
  call void @llvm.lifetime.end.p0(i64 8, ptr %12) #8
  call void @llvm.lifetime.end.p0(i64 8, ptr %11) #8
  br label %89

89:                                               ; preds = %77, %19
  %90 = load ptr, ptr %9, align 8
  %91 = getelementptr inbounds nuw %struct._GList, ptr %90, i32 0, i32 1
  %92 = load ptr, ptr %91, align 8
  store ptr %92, ptr %9, align 8
  call void @llvm.lifetime.end.p0(i64 8, ptr %10) #8
  br label %16, !llvm.loop !8

93:                                               ; preds = %16
  call void @llvm.lifetime.end.p0(i64 8, ptr %9) #8
  ret void
}