; Function Attrs: null_pointer_is_valid sspstrong uwtable
define hidden void @xmpp_unknown(ptr noundef %0, ptr noundef %1, ptr noundef %2, ptr noundef readonly captures(none) %3) local_unnamed_addr #0 {
  %5 = getelementptr inbounds nuw i8, ptr %3, i64 32
  %.040 = load ptr, ptr %5, align 8
  %.not41 = icmp eq ptr %.040, null
  br i1 %.not41, label %._crit_edge, label %.lr.ph

.lr.ph:                                           ; preds = %4
  %6 = getelementptr inbounds nuw i8, ptr %2, i64 408
  %7 = getelementptr inbounds nuw i8, ptr %2, i64 8
  br label %8

8:                                                ; preds = %.lr.ph, %63
  %.042 = phi ptr [ %.040, %.lr.ph ], [ %.0, %63 ]
  %9 = load ptr, ptr %.042, align 8
  %10 = getelementptr inbounds nuw i8, ptr %9, i64 56
  %11 = load i8, ptr %10, align 8, !range !6, !noundef !7
  %12 = trunc nuw i8 %11 to i1
  br i1 %12, label %63, label %13

13:                                               ; preds = %8
  %14 = load i32, ptr @hf_xmpp_unknown, align 4
  %15 = getelementptr inbounds nuw i8, ptr %9, i64 48
  %16 = load i32, ptr %15, align 8
  %17 = getelementptr inbounds nuw i8, ptr %9, i64 52
  %18 = load i32, ptr %17, align 4
  %19 = load ptr, ptr %9, align 8
  %20 = load ptr, ptr %6, align 8
  %21 = tail call i64 @strlen(ptr noundef readonly %19) #11
  %22 = trunc i64 %21 to i32
  %23 = shl i64 %21, 32
  %sext.i = add i64 %23, 4294967296
  %24 = ashr exact i64 %sext.i, 32
  %25 = tail call noalias ptr @wmem_alloc0(ptr noundef %20, i64 noundef %24) #10
  %26 = icmp sgt i32 %22, 0
  br i1 %26, label %.lr.ph.preheader.i, label %xmpp_ep_string_upcase.exit

.lr.ph.preheader.i:                               ; preds = %13
  %wide.trip.count.i = and i64 %21, 2147483647
  br label %.lr.ph.i

.lr.ph.i:                                         ; preds = %.lr.ph.i, %.lr.ph.preheader.i
  %indvars.iv.i = phi i64 [ 0, %.lr.ph.preheader.i ], [ %indvars.iv.next.i, %.lr.ph.i ]
  %27 = getelementptr i8, ptr %19, i64 %indvars.iv.i
  %28 = load i8, ptr %27, align 1
  %29 = getelementptr i8, ptr %25, i64 %indvars.iv.i
  %30 = add i8 %28, -97
  %or.cond.i = icmp ult i8 %30, 26
  %31 = add nsw i8 %28, -32
  %spec.select.i = select i1 %or.cond.i, i8 %31, i8 %28
  store i8 %spec.select.i, ptr %29, align 1
  %indvars.iv.next.i = add nuw nsw i64 %indvars.iv.i, 1
  %exitcond.not.i = icmp eq i64 %indvars.iv.next.i, %wide.trip.count.i
  br i1 %exitcond.not.i, label %xmpp_ep_string_upcase.exit, label %.lr.ph.i, !llvm.loop !8

xmpp_ep_string_upcase.exit:                       ; preds = %.lr.ph.i, %13
  %32 = tail call ptr (ptr, i32, ptr, i32, i32, ptr, ptr, ...) @proto_tree_add_string_format(ptr noundef %0, i32 noundef %14, ptr noundef %1, i32 noundef %16, i32 noundef %18, ptr noundef %19, ptr noundef nonnull @.str.11, ptr noundef %25)
  %33 = load i32, ptr @ett_unknown, align 16
  %34 = tail call ptr @proto_item_add_subtree(ptr noundef %32, i32 noundef %33)
  %35 = load ptr, ptr %3, align 8
  %36 = load i8, ptr %35, align 1
  %.not43 = icmp eq i8 %36, 105
  br i1 %.not43, label %sub_1, label %xmpp_ep_string_upcase.exit.tail.thread

sub_1:                                            ; preds = %xmpp_ep_string_upcase.exit
  %37 = getelementptr inbounds nuw i8, ptr %35, i64 1
  %38 = load i8, ptr %37, align 1
  %.not44 = icmp eq i8 %38, 113
  br i1 %.not44, label %xmpp_ep_string_upcase.exit.tail, label %xmpp_ep_string_upcase.exit.tail.thread

xmpp_ep_string_upcase.exit.tail:                  ; preds = %sub_1
  %39 = getelementptr inbounds nuw i8, ptr %35, i64 2
  %40 = load i8, ptr %39, align 1
  %41 = icmp eq i8 %40, 0
  br i1 %41, label %42, label %xmpp_ep_string_upcase.exit.tail.thread

42:                                               ; preds = %xmpp_ep_string_upcase.exit.tail
  %43 = load ptr, ptr %7, align 8
  %44 = load ptr, ptr %6, align 8
  %45 = load ptr, ptr %9, align 8
  %46 = tail call i64 @strlen(ptr noundef readonly %45) #11
  %47 = trunc i64 %46 to i32
  %48 = shl i64 %46, 32
  %sext.i30 = add i64 %48, 4294967296
  %49 = ashr exact i64 %sext.i30, 32
  %50 = tail call noalias ptr @wmem_alloc0(ptr noundef %44, i64 noundef %49) #10
  %51 = icmp sgt i32 %47, 0
  br i1 %51, label %.lr.ph.preheader.i31, label %xmpp_ep_string_upcase.exit39

.lr.ph.preheader.i31:                             ; preds = %42
  %wide.trip.count.i32 = and i64 %46, 2147483647
  br label %.lr.ph.i33

.lr.ph.i33:                                       ; preds = %.lr.ph.i33, %.lr.ph.preheader.i31
  %indvars.iv.i34 = phi i64 [ 0, %.lr.ph.preheader.i31 ], [ %indvars.iv.next.i37, %.lr.ph.i33 ]
  %52 = getelementptr i8, ptr %45, i64 %indvars.iv.i34
  %53 = load i8, ptr %52, align 1
  %54 = getelementptr i8, ptr %50, i64 %indvars.iv.i34
  %55 = add i8 %53, -97
  %or.cond.i35 = icmp ult i8 %55, 26
  %56 = add nsw i8 %53, -32
  %spec.select.i36 = select i1 %or.cond.i35, i8 %56, i8 %53
  store i8 %spec.select.i36, ptr %54, align 1
  %indvars.iv.next.i37 = add nuw nsw i64 %indvars.iv.i34, 1
  %exitcond.not.i38 = icmp eq i64 %indvars.iv.next.i37, %wide.trip.count.i32
  br i1 %exitcond.not.i38, label %xmpp_ep_string_upcase.exit39, label %.lr.ph.i33, !llvm.loop !8

xmpp_ep_string_upcase.exit39:                     ; preds = %.lr.ph.i33, %42
  tail call void (ptr, i32, ptr, ...) @col_append_fstr(ptr noundef %43, i32 noundef 25, ptr noundef nonnull @.str.12, ptr noundef %50)
  br label %xmpp_ep_string_upcase.exit.tail.thread

xmpp_ep_string_upcase.exit.tail.thread:           ; preds = %sub_1, %xmpp_ep_string_upcase.exit, %xmpp_ep_string_upcase.exit39, %xmpp_ep_string_upcase.exit.tail
  %57 = getelementptr inbounds nuw i8, ptr %9, i64 8
  %58 = load ptr, ptr %57, align 8
  %.not29 = icmp eq ptr %58, null
  br i1 %.not29, label %60, label %59

59:                                               ; preds = %xmpp_ep_string_upcase.exit.tail.thread
  tail call void (ptr, ptr, ...) @proto_item_append_text(ptr noundef %32, ptr noundef nonnull @.str.13, ptr noundef nonnull %58)
  br label %60

60:                                               ; preds = %59, %xmpp_ep_string_upcase.exit.tail.thread
  tail call fastcc void @xmpp_unknown_items(ptr noundef %34, ptr noundef %1, ptr noundef %2, ptr noundef %9, i32 noundef 1)
  tail call void (ptr, ptr, ...) @proto_item_append_text(ptr noundef %32, ptr noundef nonnull @.str.14)
  %61 = load ptr, ptr %9, align 8
  %62 = tail call ptr (ptr, ptr, ptr, ptr, ...) @expert_add_info_format(ptr noundef %2, ptr noundef %32, ptr noundef nonnull @ei_xmpp_unknown_element, ptr noundef nonnull @.str.15, ptr noundef %61)
  br label %63

63:                                               ; preds = %60, %8
  %64 = getelementptr inbounds nuw i8, ptr %.042, i64 8
  %.0 = load ptr, ptr %64, align 8
  %.not = icmp eq ptr %.0, null
  br i1 %.not, label %._crit_edge, label %8, !llvm.loop !10

._crit_edge:                                      ; preds = %63, %4
  ret void
}